; Function Attrs: nounwind uwtable
define range(i32 -101, 1) i32 @CVSpilsSetEpsLinB(ptr noundef %0, i32 noundef %1, double noundef %2) local_unnamed_addr #0 {
  %4 = icmp eq ptr %0, null
  br i1 %4, label %5, label %6

5:                                                ; preds = %3
  tail call void (ptr, i32, ptr, ptr, ptr, ...) @cvProcessError(ptr noundef null, i32 noundef -1, ptr noundef nonnull @.str, ptr noundef nonnull @.str.34, ptr noundef nonnull @.str.2) #5
  br label %CVSpilsSetEpsLin.exit

6:                                                ; preds = %3
  %7 = getelementptr inbounds nuw i8, ptr %0, i64 2200
  %8 = load i32, ptr %7, align 8, !tbaa !51
  %9 = icmp eq i32 %8, 0
  br i1 %9, label %10, label %11

10:                                               ; preds = %6
  tail call void (ptr, i32, ptr, ptr, ptr, ...) @cvProcessError(ptr noundef nonnull %0, i32 noundef -101, ptr noundef nonnull @.str, ptr noundef nonnull @.str.34, ptr noundef nonnull @.str.31) #5
  br label %CVSpilsSetEpsLin.exit

11:                                               ; preds = %6
  %12 = getelementptr inbounds nuw i8, ptr %0, i64 2192
  %13 = load ptr, ptr %12, align 8, !tbaa !52
  %14 = getelementptr inbounds nuw i8, ptr %13, i64 40
  %15 = load i32, ptr %14, align 8, !tbaa !53
  %.not = icmp slt i32 %1, %15
  br i1 %.not, label %17, label %16

16:                                               ; preds = %11
  tail call void (ptr, i32, ptr, ptr, ptr, ...) @cvProcessError(ptr noundef nonnull %0, i32 noundef -3, ptr noundef nonnull @.str, ptr noundef nonnull @.str.34, ptr noundef nonnull @.str.32) #5
  br label %CVSpilsSetEpsLin.exit

17:                                               ; preds = %11
  %18 = getelementptr inbounds nuw i8, ptr %13, i64 32
  br label %.lr.ph

.lr.ph:                                           ; preds = %.lr.ph, %17
  %.017.sink.in = phi ptr [ %21, %.lr.ph ], [ %18, %17 ]
  %.017.sink = load ptr, ptr %.017.sink.in, align 8, !tbaa !58, !nonnull !59, !noundef !59
  %19 = load i32, ptr %.017.sink, align 8, !tbaa !60
  %20 = icmp eq i32 %1, %19
  %21 = getelementptr inbounds nuw i8, ptr %.017.sink, i64 120
  br i1 %20, label %._crit_edge, label %.lr.ph

._crit_edge:                                      ; preds = %.lr.ph
  %22 = getelementptr inbounds nuw i8, ptr %.017.sink, i64 16
  %23 = load ptr, ptr %22, align 8, !tbaa !63
  %24 = icmp eq ptr %23, null
  br i1 %24, label %25, label %26

25:                                               ; preds = %._crit_edge
  tail call void (ptr, i32, ptr, ptr, ptr, ...) @cvProcessError(ptr noundef null, i32 noundef -1, ptr noundef nonnull @.str, ptr noundef nonnull @.str.9, ptr noundef nonnull @.str.2) #5
  br label %CVSpilsSetEpsLin.exit

26:                                               ; preds = %._crit_edge
  %27 = getelementptr inbounds nuw i8, ptr %23, i64 1696
  %28 = load ptr, ptr %27, align 8, !tbaa !3
  %29 = icmp eq ptr %28, null
  br i1 %29, label %30, label %31

30:                                               ; preds = %26
  tail call void (ptr, i32, ptr, ptr, ptr, ...) @cvProcessError(ptr noundef nonnull %23, i32 noundef -2, ptr noundef nonnull @.str, ptr noundef nonnull @.str.9, ptr noundef nonnull @.str.3) #5
  br label %CVSpilsSetEpsLin.exit

31:                                               ; preds = %26
  %32 = fcmp olt double %2, 0.000000e+00
  br i1 %32, label %33, label %34

33:                                               ; preds = %31
  tail call void (ptr, i32, ptr, ptr, ptr, ...) @cvProcessError(ptr noundef nonnull %23, i32 noundef -3, ptr noundef nonnull @.str, ptr noundef nonnull @.str.9, ptr noundef nonnull @.str.10) #5
  br label %CVSpilsSetEpsLin.exit

34:                                               ; preds = %31
  %35 = fcmp oeq double %2, 0.000000e+00
  %36 = select i1 %35, double 5.000000e-02, double %2
  %37 = getelementptr inbounds nuw i8, ptr %28, i64 24
  store double %36, ptr %37, align 8, !tbaa !23
  br label %CVSpilsSetEpsLin.exit

CVSpilsSetEpsLin.exit:                            ; preds = %34, %33, %30, %25, %16, %10, %5
  %.0 = phi i32 [ -1, %5 ], [ -101, %10 ], [ -3, %16 ], [ -1, %25 ], [ -2, %30 ], [ -3, %33 ], [ 0, %34 ]
  ret i32 %.0
}